target datalayout = "e-m:e-p270:32:32-p271:32:32-p272:64:64-i64:64-i128:128-f80:128-n8:16:32:64-S128"
target triple = "x86_64-pc-linux-gnu"

%struct.HMAC_params = type { ptr, ptr, ptr, i32, i32, i32 }

@Curl_cmalloc = external global ptr, align 8
@Curl_cfree = external global ptr, align 8
@Curl_HMAC_MD5 = external constant %struct.HMAC_params, align 8

; Function Attrs: nounwind uwtable
define internal void @ascii_to_unicode_le(ptr noundef %0, ptr noundef %1, i64 noundef %2) #0 {
  %4 = alloca ptr, align 8
  %5 = alloca ptr, align 8
  %6 = alloca i64, align 8
  %7 = alloca i64, align 8
  store ptr %0, ptr %4, align 8, !tbaa !3
  store ptr %1, ptr %5, align 8, !tbaa !3
  store i64 %2, ptr %6, align 8, !tbaa !10
  call void @llvm.lifetime.start.p0(i64 8, ptr %7) #7
  store i64 0, ptr %7, align 8, !tbaa !10
  br label %8

8:                                                ; preds = %26, %3
  %9 = load i64, ptr %7, align 8, !tbaa !10
  %10 = load i64, ptr %6, align 8, !tbaa !10
  %11 = icmp ult i64 %9, %10
  br i1 %11, label %12, label %29

12:                                               ; preds = %8
  %13 = load ptr, ptr %5, align 8, !tbaa !3
  %14 = load i64, ptr %7, align 8, !tbaa !10
  %15 = getelementptr inbounds nuw i8, ptr %13, i64 %14
  %16 = load i8, ptr %15, align 1, !tbaa !15
  %17 = load ptr, ptr %4, align 8, !tbaa !3
  %18 = load i64, ptr %7, align 8, !tbaa !10
  %19 = mul i64 2, %18
  %20 = getelementptr inbounds nuw i8, ptr %17, i64 %19
  store i8 %16, ptr %20, align 1, !tbaa !15
  %21 = load ptr, ptr %4, align 8, !tbaa !3
  %22 = load i64, ptr %7, align 8, !tbaa !10
  %23 = mul i64 2, %22
  %24 = add i64 %23, 1
  %25 = getelementptr inbounds nuw i8, ptr %21, i64 %24
  store i8 0, ptr %25, align 1, !tbaa !15
  br label %26

26:                                               ; preds = %12
  %27 = load i64, ptr %7, align 8, !tbaa !10
  %28 = add i64 %27, 1
  store i64 %28, ptr %7, align 8, !tbaa !10
  br label %8, !llvm.loop !16

29:                                               ; preds = %8
  call void @llvm.lifetime.end.p0(i64 8, ptr %7) #7
  ret void
}

; Function Attrs: nounwind uwtable
define internal void @ascii_uppercase_to_unicode_le(ptr noundef %0, ptr noundef %1, i64 noundef %2) #0 {
  %4 = alloca ptr, align 8
  %5 = alloca ptr, align 8
  %6 = alloca i64, align 8
  %7 = alloca i64, align 8
  store ptr %0, ptr %4, align 8, !tbaa !3
  store ptr %1, ptr %5, align 8, !tbaa !3
  store i64 %2, ptr %6, align 8, !tbaa !10
  call void @llvm.lifetime.start.p0(i64 8, ptr %7) #7
  store i64 0, ptr %7, align 8, !tbaa !10
  br label %8

8:                                                ; preds = %27, %3
  %9 = load i64, ptr %7, align 8, !tbaa !10
  %10 = load i64, ptr %6, align 8, !tbaa !10
  %11 = icmp ult i64 %9, %10
  br i1 %11, label %12, label %30

12:                                               ; preds = %8
  %13 = load ptr, ptr %5, align 8, !tbaa !3
  %14 = load i64, ptr %7, align 8, !tbaa !10
  %15 = getelementptr inbounds nuw i8, ptr %13, i64 %14
  %16 = load i8, ptr %15, align 1, !tbaa !15
  %17 = call signext i8 @Curl_raw_toupper(i8 noundef signext %16)
  %18 = load ptr, ptr %4, align 8, !tbaa !3
  %19 = load i64, ptr %7, align 8, !tbaa !10
  %20 = mul i64 2, %19
  %21 = getelementptr inbounds nuw i8, ptr %18, i64 %20
  store i8 %17, ptr %21, align 1, !tbaa !15
  %22 = load ptr, ptr %4, align 8, !tbaa !3
  %23 = load i64, ptr %7, align 8, !tbaa !10
  %24 = mul i64 2, %23
  %25 = add i64 %24, 1
  %26 = getelementptr inbounds nuw i8, ptr %22, i64 %25
  store i8 0, ptr %26, align 1, !tbaa !15
  br label %27

27:                                               ; preds = %12
  %28 = load i64, ptr %7, align 8, !tbaa !10
  %29 = add i64 %28, 1
  store i64 %29, ptr %7, align 8, !tbaa !10
  br label %8, !llvm.loop !18

30:                                               ; preds = %8
  call void @llvm.lifetime.end.p0(i64 8, ptr %7) #7
  ret void
}

; Function Attrs: nounwind uwtable
define hidden i32 @Curl_ntlm_core_mk_ntlmv2_hash(ptr noundef %0, i64 noundef %1, ptr noundef %2, i64 noundef %3, ptr noundef %4, ptr noundef %5) #0 {
  %7 = alloca i32, align 4
  %8 = alloca ptr, align 8
  %9 = alloca i64, align 8
  %10 = alloca ptr, align 8
  %11 = alloca i64, align 8
  %12 = alloca ptr, align 8
  %13 = alloca ptr, align 8
  %14 = alloca i64, align 8
  %15 = alloca ptr, align 8
  %16 = alloca i32, align 4
  %17 = alloca i32, align 4
  store ptr %0, ptr %8, align 8, !tbaa !3
  store i64 %1, ptr %9, align 8, !tbaa !10
  store ptr %2, ptr %10, align 8, !tbaa !3
  store i64 %3, ptr %11, align 8, !tbaa !10
  store ptr %4, ptr %12, align 8, !tbaa !3
  store ptr %5, ptr %13, align 8, !tbaa !3
  call void @llvm.lifetime.start.p0(i64 8, ptr %14) #7
  call void @llvm.lifetime.start.p0(i64 8, ptr %15) #7
  call void @llvm.lifetime.start.p0(i64 4, ptr %16) #7
  store i32 0, ptr %16, align 4, !tbaa !13
  %18 = load i64, ptr %9, align 8, !tbaa !10
  %19 = icmp ugt i64 %18, 8000000
  br i1 %19, label %23, label %20

20:                                               ; preds = %6
  %21 = load i64, ptr %11, align 8, !tbaa !10
  %22 = icmp ugt i64 %21, 8000000
  br i1 %22, label %23, label %24

23:                                               ; preds = %20, %6
  store i32 27, ptr %7, align 4
  store i32 1, ptr %17, align 4
  br label %54

24:                                               ; preds = %20
  %25 = load i64, ptr %9, align 8, !tbaa !10
  %26 = load i64, ptr %11, align 8, !tbaa !10
  %27 = add i64 %25, %26
  %28 = mul i64 %27, 2
  store i64 %28, ptr %14, align 8, !tbaa !10
  %29 = load ptr, ptr @Curl_cmalloc, align 8, !tbaa !12
  %30 = load i64, ptr %14, align 8, !tbaa !10
  %31 = add i64 %30, 1
  %32 = call ptr %29(i64 noundef %31)
  store ptr %32, ptr %15, align 8, !tbaa !3
  %33 = load ptr, ptr %15, align 8, !tbaa !3
  %34 = icmp ne ptr %33, null
  br i1 %34, label %36, label %35

35:                                               ; preds = %24
  store i32 27, ptr %7, align 4
  store i32 1, ptr %17, align 4
  br label %54

36:                                               ; preds = %24
  %37 = load ptr, ptr %15, align 8, !tbaa !3
  %38 = load ptr, ptr %8, align 8, !tbaa !3
  %39 = load i64, ptr %9, align 8, !tbaa !10
  call void @ascii_uppercase_to_unicode_le(ptr noundef %37, ptr noundef %38, i64 noundef %39)
  %40 = load ptr, ptr %15, align 8, !tbaa !3
  %41 = load i64, ptr %9, align 8, !tbaa !10
  %42 = shl i64 %41, 1
  %43 = getelementptr inbounds nuw i8, ptr %40, i64 %42
  %44 = load ptr, ptr %10, align 8, !tbaa !3
  %45 = load i64, ptr %11, align 8, !tbaa !10
  call void @ascii_to_unicode_le(ptr noundef %43, ptr noundef %44, i64 noundef %45)
  %46 = load ptr, ptr %12, align 8, !tbaa !3
  %47 = load ptr, ptr %15, align 8, !tbaa !3
  %48 = load i64, ptr %14, align 8, !tbaa !10
  %49 = load ptr, ptr %13, align 8, !tbaa !3
  %50 = call i32 @Curl_hmacit(ptr noundef @Curl_HMAC_MD5, ptr noundef %46, i64 noundef 16, ptr noundef %47, i64 noundef %48, ptr noundef %49)
  store i32 %50, ptr %16, align 4, !tbaa !13
  %51 = load ptr, ptr @Curl_cfree, align 8, !tbaa !12
  %52 = load ptr, ptr %15, align 8, !tbaa !3
  call void %51(ptr noundef %52)
  %53 = load i32, ptr %16, align 4, !tbaa !13
  store i32 %53, ptr %7, align 4
  store i32 1, ptr %17, align 4
  br label %54

54:                                               ; preds = %36, %35, %23
  call void @llvm.lifetime.end.p0(i64 4, ptr %16) #7
  call void @llvm.lifetime.end.p0(i64 8, ptr %15) #7
  call void @llvm.lifetime.end.p0(i64 8, ptr %14) #7
  %55 = load i32, ptr %7, align 4
  ret i32 %55
}