; Function Attrs: nounwind uwtable
define hidden i32 @Curl_ntlm_core_mk_ntlmv2_hash(ptr noundef readonly captures(none) %0, i64 noundef %1, ptr noundef readonly captures(none) %2, i64 noundef %3, ptr noundef %4, ptr noundef %5) local_unnamed_addr #0 {
  %7 = icmp ugt i64 %1, 8000000
  %8 = icmp ugt i64 %3, 8000000
  %or.cond = or i1 %7, %8
  br i1 %or.cond, label %35, label %9

9:                                                ; preds = %6
  %10 = add nuw nsw i64 %3, %1
  %11 = shl nuw nsw i64 %10, 1
  %12 = load ptr, ptr @Curl_cmalloc, align 8, !tbaa !6
  %13 = or disjoint i64 %11, 1
  %14 = tail call ptr %12(i64 noundef %13) #8
  %.not = icmp eq ptr %14, null
  br i1 %.not, label %35, label %15

15:                                               ; preds = %9
  %.not.i = icmp eq i64 %1, 0
  br i1 %.not.i, label %ascii_uppercase_to_unicode_le.exit, label %.lr.ph.i

.lr.ph.i:                                         ; preds = %15, %.lr.ph.i
  %.08.i = phi i64 [ %23, %.lr.ph.i ], [ 0, %15 ]
  %16 = getelementptr inbounds nuw i8, ptr %0, i64 %.08.i
  %17 = load i8, ptr %16, align 1, !tbaa !3
  %18 = tail call signext i8 @Curl_raw_toupper(i8 noundef signext %17) #8
  %19 = shl nuw nsw i64 %.08.i, 1
  %20 = getelementptr inbounds nuw i8, ptr %14, i64 %19
  store i8 %18, ptr %20, align 1, !tbaa !3
  %21 = or disjoint i64 %19, 1
  %22 = getelementptr inbounds nuw i8, ptr %14, i64 %21
  store i8 0, ptr %22, align 1, !tbaa !3
  %23 = add nuw nsw i64 %.08.i, 1
  %exitcond.not.i = icmp eq i64 %23, %1
  br i1 %exitcond.not.i, label %ascii_uppercase_to_unicode_le.exit, label %.lr.ph.i, !llvm.loop !10

ascii_uppercase_to_unicode_le.exit:               ; preds = %.lr.ph.i, %15
  %24 = shl nuw nsw i64 %1, 1
  %25 = getelementptr inbounds nuw i8, ptr %14, i64 %24
  %.not.i23 = icmp eq i64 %3, 0
  br i1 %.not.i23, label %ascii_to_unicode_le.exit, label %.lr.ph.i24

.lr.ph.i24:                                       ; preds = %ascii_uppercase_to_unicode_le.exit, %.lr.ph.i24
  %.08.i25 = phi i64 [ %32, %.lr.ph.i24 ], [ 0, %ascii_uppercase_to_unicode_le.exit ]
  %26 = getelementptr inbounds nuw i8, ptr %2, i64 %.08.i25
  %27 = load i8, ptr %26, align 1, !tbaa !3
  %28 = shl nuw i64 %.08.i25, 1
  %29 = getelementptr inbounds nuw i8, ptr %25, i64 %28
  store i8 %27, ptr %29, align 1, !tbaa !3
  %30 = or disjoint i64 %28, 1
  %31 = getelementptr inbounds nuw i8, ptr %25, i64 %30
  store i8 0, ptr %31, align 1, !tbaa !3
  %32 = add nuw nsw i64 %.08.i25, 1
  %exitcond.not.i26 = icmp eq i64 %32, %3
  br i1 %exitcond.not.i26, label %ascii_to_unicode_le.exit, label %.lr.ph.i24, !llvm.loop !8

ascii_to_unicode_le.exit:                         ; preds = %.lr.ph.i24, %ascii_uppercase_to_unicode_le.exit
  %33 = tail call i32 @Curl_hmacit(ptr noundef nonnull @Curl_HMAC_MD5, ptr noundef %4, i64 noundef 16, ptr noundef nonnull %14, i64 noundef %11, ptr noundef %5) #8
  %34 = load ptr, ptr @Curl_cfree, align 8, !tbaa !6
  tail call void %34(ptr noundef nonnull %14) #8
  br label %35

35:                                               ; preds = %9, %6, %ascii_to_unicode_le.exit
  %.0 = phi i32 [ %33, %ascii_to_unicode_le.exit ], [ 27, %6 ], [ 27, %9 ]
  ret i32 %.0
}